target datalayout = "e-m:e-p270:32:32-p271:32:32-p272:64:64-i64:64-i128:128-f80:128-n8:16:32:64-S128"
target triple = "x86_64-pc-linux-gnu"

%struct._generic_SUNLinearSolver = type { ptr, ptr, ptr }
%struct._SUNLinearSolverContent_SPBCGS = type { i32, i32, i32, i32, double, i32, ptr, ptr, ptr, ptr, ptr, ptr, ptr, ptr, ptr, ptr, ptr, ptr, ptr, ptr }

; Function Attrs: nounwind uwtable
define i32 @SUNLinSolSetPreconditioner_SPBCGS(ptr noundef %0, ptr noundef %1, ptr noundef %2, ptr noundef %3) #0 {
  %5 = alloca ptr, align 8
  %6 = alloca ptr, align 8
  %7 = alloca ptr, align 8
  %8 = alloca ptr, align 8
  %9 = alloca ptr, align 8
  store ptr %0, ptr %5, align 8, !tbaa !12
  store ptr %1, ptr %6, align 8, !tbaa !58
  store ptr %2, ptr %7, align 8, !tbaa !58
  store ptr %3, ptr %8, align 8, !tbaa !58
  call void @llvm.lifetime.start.p0(i64 8, ptr %9) #5
  %10 = load ptr, ptr %5, align 8, !tbaa !12
  %11 = getelementptr inbounds nuw %struct._generic_SUNLinearSolver, ptr %10, i32 0, i32 2
  %12 = load ptr, ptr %11, align 8, !tbaa !59
  store ptr %12, ptr %9, align 8, !tbaa !10
  %13 = load ptr, ptr %7, align 8, !tbaa !58
  %14 = load ptr, ptr %5, align 8, !tbaa !12
  %15 = getelementptr inbounds nuw %struct._generic_SUNLinearSolver, ptr %14, i32 0, i32 0
  %16 = load ptr, ptr %15, align 8, !tbaa !35
  %17 = getelementptr inbounds nuw %struct._SUNLinearSolverContent_SPBCGS, ptr %16, i32 0, i32 8
  store ptr %13, ptr %17, align 8, !tbaa !55
  %18 = load ptr, ptr %8, align 8, !tbaa !58
  %19 = load ptr, ptr %5, align 8, !tbaa !12
  %20 = getelementptr inbounds nuw %struct._generic_SUNLinearSolver, ptr %19, i32 0, i32 0
  %21 = load ptr, ptr %20, align 8, !tbaa !35
  %22 = getelementptr inbounds nuw %struct._SUNLinearSolverContent_SPBCGS, ptr %21, i32 0, i32 9
  store ptr %18, ptr %22, align 8, !tbaa !56
  %23 = load ptr, ptr %6, align 8, !tbaa !58
  %24 = load ptr, ptr %5, align 8, !tbaa !12
  %25 = getelementptr inbounds nuw %struct._generic_SUNLinearSolver, ptr %24, i32 0, i32 0
  %26 = load ptr, ptr %25, align 8, !tbaa !35
  %27 = getelementptr inbounds nuw %struct._SUNLinearSolverContent_SPBCGS, ptr %26, i32 0, i32 10
  store ptr %23, ptr %27, align 8, !tbaa !57
  call void @llvm.lifetime.end.p0(i64 8, ptr %9) #5
  ret i32 0
}